Certificate:
    Data:
        Version: 1 (0x0)
        Serial Number: 1 (0x1)
    Signature Algorithm: ecdsa-with-SHA256
        Issuer: C=QQ, O=Org1, CN=TestCA1
        Validity
            Not Before: Nov  2 18:51:29 2015 GMT
            Not After : Nov 15 18:51:29 2043 GMT
        Subject: C=QQ, L=computer, O=Org1, OU=db, CN=localhost
        Subject Public Key Info:
            Public Key Algorithm: id-ecPublicKey
                Public-Key: (256 bit)
                pub: 
                    04:43:67:94:56:08:84:77:1e:ca:2f:00:aa:28:37:
                    af:a6:73:b2:42:f3:97:78:6f:c7:fb:c8:3f:67:4c:
                    fe:36:5d:de:fc:4a:75:39:6a:1c:e9:bf:bf:30:ac:
                    8b:eb:3c:d1:f2:1a:48:f9:97:e9:3d:75:5e:82:41:
                    d5:a3:91:56:91
                ASN1 OID: prime256v1
    Signature Algorithm: ecdsa-with-SHA256
         30:45:02:21:00:bb:bb:d5:e7:e1:2e:30:24:9c:48:48:32:d4:
         aa:b4:b0:05:41:28:50:c8:4e:53:3d:56:49:06:f6:09:84:93:
         98:02:20:5c:41:08:61:05:c7:48:18:bb:f5:6e:c5:7a:74:35:
         b1:10:cd:cf:75:55:83:43:36:a8:e2:02:7e:44:24:7d:5c
-----BEGIN CERTIFICATE-----
MIIBZjCCAQwCAQEwCgYIKoZIzj0EAwIwLjELMAkGA1UEBhMCUVExDTALBgNVBAoT
BE9yZzExEDAOBgNVBAMTB1Rlc3RDQTEwHhcNMTUxMTAyMTg1MTI5WhcNNDMxMTE1
MTg1MTI5WjBQMQswCQYDVQQGEwJRUTERMA8GA1UEBxMIY29tcHV0ZXIxDTALBgNV
BAoTBE9yZzExCzAJBgNVBAsTAmRiMRIwEAYDVQQDEwlsb2NhbGhvc3QwWTATBgcq
hkjOPQIBBggqhkjOPQMBBwNCAARDZ5RWCIR3HsovAKooN6+mc7JC85d4b8f7yD9n
TP42Xd78SnU5ahzpv78wrIvrPNHyGkj5l+k9dV6CQdWjkVaRMAoGCCqGSM49BAMC
A0gAMEUCIQC7u9Xn4S4wJJxISDLUqrSwBUEoUMhOUz1WSQb2CYSTmAIgXEEIYQXH
SBi79W7FenQ1sRDNz3VVg0M2qOICfkQkfVw=
-----END CERTIFICATE-----
