Certificate:
    Data:
        Version: 1 (0x0)
        Serial Number: 3 (0x3)
    Signature Algorithm: ecdsa-with-SHA256
        Issuer: C=QQ, O=Org1, CN=TestCA1
        Validity
            Not Before: Nov  2 18:51:29 2015 GMT
            Not After : Nov 15 18:51:29 2043 GMT
        Subject: C=QQ, L=computer, O=Org1, OU=Dev, CN=random
        Subject Public Key Info:
            Public Key Algorithm: id-ecPublicKey
                Public-Key: (256 bit)
                pub: 
                    04:61:d8:4f:c8:fd:7a:56:a3:3e:f4:e3:fd:b8:0d:
                    fc:72:9e:3b:74:72:18:fb:d1:10:ae:f7:44:8c:cd:
                    24:55:c3:34:1a:02:3c:d5:26:66:e0:eb:7e:e8:d4:
                    d0:8b:b8:d7:6b:9d:71:7b:c6:a1:57:fa:e6:87:8f:
                    c8:f5:63:dc:28
                ASN1 OID: prime256v1
    Signature Algorithm: ecdsa-with-SHA256
         30:45:02:21:00:91:0b:37:23:2f:2a:c9:c2:60:51:af:ba:33:
         1e:c7:50:6f:f4:fb:2a:ff:2d:f5:c6:0d:fd:f4:e6:7a:3a:9e:
         77:02:20:6e:02:7b:f5:16:c1:7a:78:68:af:c2:8e:8b:86:b6:
         ad:84:b1:2e:4e:f6:80:70:5e:c4:13:dc:c4:84:62:61:92
-----BEGIN CERTIFICATE-----
MIIBZDCCAQoCAQMwCgYIKoZIzj0EAwIwLjELMAkGA1UEBhMCUVExDTALBgNVBAoT
BE9yZzExEDAOBgNVBAMTB1Rlc3RDQTEwHhcNMTUxMTAyMTg1MTI5WhcNNDMxMTE1
MTg1MTI5WjBOMQswCQYDVQQGEwJRUTERMA8GA1UEBxMIY29tcHV0ZXIxDTALBgNV
BAoTBE9yZzExDDAKBgNVBAsTA0RldjEPMA0GA1UEAxMGcmFuZG9tMFkwEwYHKoZI
zj0CAQYIKoZIzj0DAQcDQgAEYdhPyP16VqM+9OP9uA38cp47dHIY+9EQrvdEjM0k
VcM0GgI81SZm4Ot+6NTQi7jXa51xe8ahV/rmh4/I9WPcKDAKBggqhkjOPQQDAgNI
ADBFAiEAkQs3Iy8qycJgUa+6Mx7HUG/0+yr/LfXGDf305no6nncCIG4Ce/UWwXp4
aK/CjouGtq2EsS5O9oBwXsQT3MSEYmGS
-----END CERTIFICATE-----
