Certificate:
    Data:
        Version: 1 (0x0)
        Serial Number: 2 (0x2)
    Signature Algorithm: ecdsa-with-SHA256
        Issuer: C=QQ, O=Org1, CN=TestCA1
        Validity
            Not Before: Nov  2 18:51:29 2015 GMT
            Not After : Nov 15 18:51:29 2043 GMT
        Subject: C=QQ, L=computer, O=Org1, OU=Dev, CN=bouncer
        Subject Public Key Info:
            Public Key Algorithm: id-ecPublicKey
                Public-Key: (256 bit)
                pub: 
                    04:78:24:60:bd:49:d0:a7:cc:cd:4c:fd:5f:05:57:
                    85:b2:82:d7:07:e4:09:ef:26:c3:8d:81:45:ed:ab:
                    48:e2:49:a7:06:d2:ce:5c:7a:87:9c:29:b4:da:be:
                    02:d4:60:90:bc:6f:61:13:9b:95:d9:9a:5d:ae:a5:
                    bf:42:46:c7:13
                ASN1 OID: prime256v1
    Signature Algorithm: ecdsa-with-SHA256
         30:44:02:20:5f:94:b0:e5:5f:87:1a:fb:19:ff:44:c6:fa:33:
         d1:b8:40:37:a8:8f:1a:a1:ce:fd:5e:c2:e1:0a:ae:de:97:9d:
         02:20:11:3b:5a:be:4a:02:9a:ee:b0:6c:ab:f1:a4:9b:6a:c9:
         03:a8:17:40:3a:9b:44:e6:d8:21:42:f0:4f:c0:fe:4b
-----BEGIN CERTIFICATE-----
MIIBZDCCAQsCAQIwCgYIKoZIzj0EAwIwLjELMAkGA1UEBhMCUVExDTALBgNVBAoT
BE9yZzExEDAOBgNVBAMTB1Rlc3RDQTEwHhcNMTUxMTAyMTg1MTI5WhcNNDMxMTE1
MTg1MTI5WjBPMQswCQYDVQQGEwJRUTERMA8GA1UEBxMIY29tcHV0ZXIxDTALBgNV
BAoTBE9yZzExDDAKBgNVBAsTA0RldjEQMA4GA1UEAxMHYm91bmNlcjBZMBMGByqG
SM49AgEGCCqGSM49AwEHA0IABHgkYL1J0KfMzUz9XwVXhbKC1wfkCe8mw42BRe2r
SOJJpwbSzlx6h5wptNq+AtRgkLxvYRObldmaXa6lv0JGxxMwCgYIKoZIzj0EAwID
RwAwRAIgX5Sw5V+HGvsZ/0TG+jPRuEA3qI8aoc79XsLhCq7el50CIBE7Wr5KApru
sGyr8aSbaskDqBdAOptE5tghQvBPwP5L
-----END CERTIFICATE-----
